target datalayout = "e-m:e-p270:32:32-p271:32:32-p272:64:64-i64:64-i128:128-f80:128-n8:16:32:64-S128"
target triple = "x86_64-pc-linux-gnu"

%"struct.faiss::Index" = type <{ ptr, i32, [4 x i8], i64, i8, i8, [2 x i8], i32, float, [4 x i8] }>

@.str.48 = private unnamed_addr constant [32 x i8] c"IndexIVF: no residual training\0A\00", align 1

; Function Attrs: mustprogress uwtable
define void @_ZN5faiss8IndexIVF13train_encoderElPKfPKl(ptr noundef nonnull align 8 dereferenceable(265) %0, i64 noundef %1, ptr noundef %2, ptr noundef %3) unnamed_addr #0 align 2 {
  %5 = alloca ptr, align 8
  %6 = alloca i64, align 8
  %7 = alloca ptr, align 8
  %8 = alloca ptr, align 8
  store ptr %0, ptr %5, align 8, !tbaa !45
  store i64 %1, ptr %6, align 8, !tbaa !9
  store ptr %2, ptr %7, align 8, !tbaa !15
  store ptr %3, ptr %8, align 8, !tbaa !13
  %9 = load ptr, ptr %5, align 8
  %10 = getelementptr inbounds nuw %"struct.faiss::Index", ptr %9, i32 0, i32 4
  %11 = load i8, ptr %10, align 8, !tbaa !47, !range !21, !noundef !22
  %12 = trunc i8 %11 to i1
  br i1 %12, label %13, label %15

13:                                               ; preds = %4
  %14 = call i32 (ptr, ...) @printf(ptr noundef @.str.48)
  br label %15

15:                                               ; preds = %13, %4
  ret void
}