; Function Attrs: mustprogress nofree nounwind uwtable
define void @_ZN5faiss8IndexIVF13train_encoderElPKfPKl(ptr noundef nonnull readonly align 8 captures(none) dereferenceable(265) %0, i64 %1, ptr readnone captures(none) %2, ptr readnone captures(none) %3) unnamed_addr #5 align 2 {
  %5 = getelementptr inbounds nuw i8, ptr %0, i64 24
  %6 = load i8, ptr %5, align 8, !tbaa !31, !range !12, !noundef !13
  %7 = trunc nuw i8 %6 to i1
  br i1 %7, label %8, label %9

8:                                                ; preds = %4
  %puts = tail call i32 @puts(ptr nonnull dereferenceable(1) @str.2)
  br label %9

9:                                                ; preds = %8, %4
  ret void
}